; Function Attrs: nounwind uwtable
define ptr @l_Lean_Meta_Grind_propagateMatchCondUp___lambda__1___boxed(ptr noundef %0, ptr noundef %1, ptr noundef %2, ptr noundef %3, ptr noundef %4, ptr noundef %5, ptr noundef %6, ptr noundef %7, ptr noundef %8, ptr noundef %9, ptr noundef %10, ptr noundef %11) local_unnamed_addr #0 {
  %13 = ptrtoint ptr %0 to i64
  %14 = and i64 %13, 1
  %.not.i14 = icmp eq i64 %14, 0
  br i1 %.not.i14, label %15, label %l_Lean_Meta_Grind_propagateMatchCondUp___lambda__1.exit

15:                                               ; preds = %12
  %.val.i.i = load i32, ptr %0, align 4, !tbaa !4
  %16 = icmp sgt i32 %.val.i.i, 0
  br i1 %16, label %17, label %19, !prof !9

17:                                               ; preds = %15
  %18 = add nuw i32 %.val.i.i, 1
  store i32 %18, ptr %0, align 4, !tbaa !4
  br label %l_Lean_Meta_Grind_propagateMatchCondUp___lambda__1.exit

19:                                               ; preds = %15
  %.not.i.i = icmp eq i32 %.val.i.i, 0
  br i1 %.not.i.i, label %l_Lean_Meta_Grind_propagateMatchCondUp___lambda__1.exit, label %20

20:                                               ; preds = %19
  tail call void @lean_inc_ref_cold(ptr noundef nonnull %0) #4
  br label %l_Lean_Meta_Grind_propagateMatchCondUp___lambda__1.exit

l_Lean_Meta_Grind_propagateMatchCondUp___lambda__1.exit: ; preds = %12, %17, %19, %20
  %21 = tail call ptr @l_Lean_Meta_mkEqTrueCore(ptr noundef %0, ptr noundef %1) #4
  %22 = tail call ptr @l_Lean_Meta_Grind_pushEqTrue(ptr noundef %0, ptr noundef %21, ptr noundef %3, ptr noundef %4, ptr noundef %5, ptr noundef %6, ptr noundef %7, ptr noundef %8, ptr noundef %9, ptr noundef %10, ptr noundef %11) #4
  %23 = ptrtoint ptr %2 to i64
  %24 = and i64 %23, 1
  %.not = icmp eq i64 %24, 0
  br i1 %.not, label %25, label %lean_dec.exit

25:                                               ; preds = %l_Lean_Meta_Grind_propagateMatchCondUp___lambda__1.exit
  %26 = load i32, ptr %2, align 4, !tbaa !4
  %27 = icmp sgt i32 %26, 1
  br i1 %27, label %28, label %30, !prof !9

28:                                               ; preds = %25
  %29 = add nsw i32 %26, -1
  store i32 %29, ptr %2, align 4, !tbaa !4
  br label %lean_dec.exit

30:                                               ; preds = %25
  %.not.i = icmp eq i32 %26, 0
  br i1 %.not.i, label %lean_dec.exit, label %31

31:                                               ; preds = %30
  tail call void @lean_dec_ref_cold(ptr noundef nonnull %2) #4
  br label %lean_dec.exit

lean_dec.exit:                                    ; preds = %31, %30, %28, %l_Lean_Meta_Grind_propagateMatchCondUp___lambda__1.exit
  ret ptr %22
}